(dp1
V\u0430\u043d\u0433\u043b
p2
I10
sV\u0432\u0435\u0440\u043e\u044f\u0442\u043d\u043e\u0441\u0442\u044c
p3
I10
sV:-|
p4
I10
sVrus
p5
I10
sV\u043b\u0443\u0440\u043a
p6
I10
sVloadpl
p7
I100
sV\u0430\u0431\u0441\u0443\u0440\u0434
p8
I10
s.